target datalayout = "e-m:e-p270:32:32-p271:32:32-p272:64:64-i64:64-i128:128-f80:128-n8:16:32:64-S128"
target triple = "x86_64-pc-linux-gnu"

%struct.lzma_options_lzma = type { i32, ptr, i32, i32, i32, i32, i32, i32, i32, i32, i32, i32, i32, i32, i32, i32, i32, i32, i32, i32, i32, i32, ptr, ptr }

; Function Attrs: nounwind uwtable
define internal i32 @read32ne(ptr noundef %0) #0 {
  %2 = alloca ptr, align 8
  %3 = alloca i32, align 4
  store ptr %0, ptr %2, align 8
  %4 = load ptr, ptr %2, align 8
  call void @llvm.memcpy.p0.p0.i64(ptr align 4 %3, ptr align 1 %4, i64 4, i1 false)
  %5 = load i32, ptr %3, align 4
  ret i32 %5
}

; Function Attrs: nounwind uwtable
define internal i32 @read32le(ptr noundef %0) #0 {
  %2 = alloca ptr, align 8
  %3 = alloca i32, align 4
  store ptr %0, ptr %2, align 8
  %4 = load ptr, ptr %2, align 8
  %5 = call i32 @read32ne(ptr noundef %4)
  store i32 %5, ptr %3, align 4
  %6 = load i32, ptr %3, align 4
  ret i32 %6
}

; Function Attrs: nounwind uwtable
define dso_local zeroext i1 @lzma_lzma_lclppb_decode(ptr noundef %0, i8 noundef zeroext %1) #0 {
  %3 = alloca i1, align 1
  %4 = alloca ptr, align 8
  %5 = alloca i8, align 1
  store ptr %0, ptr %4, align 8
  store i8 %1, ptr %5, align 1
  %6 = load i8, ptr %5, align 1
  %7 = zext i8 %6 to i32
  %8 = icmp sgt i32 %7, 224
  br i1 %8, label %9, label %10

9:                                                ; preds = %2
  store i1 true, ptr %3, align 1
  br label %47

10:                                               ; preds = %2
  %11 = load i8, ptr %5, align 1
  %12 = zext i8 %11 to i32
  %13 = sdiv i32 %12, 45
  %14 = load ptr, ptr %4, align 8
  %15 = getelementptr inbounds %struct.lzma_options_lzma, ptr %14, i32 0, i32 5
  store i32 %13, ptr %15, align 4
  %16 = load ptr, ptr %4, align 8
  %17 = getelementptr inbounds %struct.lzma_options_lzma, ptr %16, i32 0, i32 5
  %18 = load i32, ptr %17, align 4
  %19 = mul i32 %18, 9
  %20 = mul i32 %19, 5
  %21 = load i8, ptr %5, align 1
  %22 = zext i8 %21 to i32
  %23 = sub i32 %22, %20
  %24 = trunc i32 %23 to i8
  store i8 %24, ptr %5, align 1
  %25 = load i8, ptr %5, align 1
  %26 = zext i8 %25 to i32
  %27 = sdiv i32 %26, 9
  %28 = load ptr, ptr %4, align 8
  %29 = getelementptr inbounds %struct.lzma_options_lzma, ptr %28, i32 0, i32 4
  store i32 %27, ptr %29, align 8
  %30 = load i8, ptr %5, align 1
  %31 = zext i8 %30 to i32
  %32 = load ptr, ptr %4, align 8
  %33 = getelementptr inbounds %struct.lzma_options_lzma, ptr %32, i32 0, i32 4
  %34 = load i32, ptr %33, align 8
  %35 = mul i32 %34, 9
  %36 = sub i32 %31, %35
  %37 = load ptr, ptr %4, align 8
  %38 = getelementptr inbounds %struct.lzma_options_lzma, ptr %37, i32 0, i32 3
  store i32 %36, ptr %38, align 4
  %39 = load ptr, ptr %4, align 8
  %40 = getelementptr inbounds %struct.lzma_options_lzma, ptr %39, i32 0, i32 3
  %41 = load i32, ptr %40, align 4
  %42 = load ptr, ptr %4, align 8
  %43 = getelementptr inbounds %struct.lzma_options_lzma, ptr %42, i32 0, i32 4
  %44 = load i32, ptr %43, align 8
  %45 = add i32 %41, %44
  %46 = icmp ugt i32 %45, 4
  store i1 %46, ptr %3, align 1
  br label %47

47:                                               ; preds = %10, %9
  %48 = load i1, ptr %3, align 1
  ret i1 %48
}

; Function Attrs: nounwind uwtable
define dso_local i32 @lzma_lzma_props_decode(ptr noundef %0, ptr noundef %1, ptr noundef %2, i64 noundef %3) #0 {
  %5 = alloca i32, align 4
  %6 = alloca ptr, align 8
  %7 = alloca ptr, align 8
  %8 = alloca ptr, align 8
  %9 = alloca i64, align 8
  %10 = alloca ptr, align 8
  store ptr %0, ptr %6, align 8
  store ptr %1, ptr %7, align 8
  store ptr %2, ptr %8, align 8
  store i64 %3, ptr %9, align 8
  %11 = load i64, ptr %9, align 8
  %12 = icmp ne i64 %11, 5
  br i1 %12, label %13, label %14

13:                                               ; preds = %4
  store i32 8, ptr %5, align 4
  br label %42

14:                                               ; preds = %4
  %15 = load ptr, ptr %7, align 8
  %16 = call noalias ptr @lzma_alloc(i64 noundef 112, ptr noundef %15)
  store ptr %16, ptr %10, align 8
  %17 = load ptr, ptr %10, align 8
  %18 = icmp eq ptr %17, null
  br i1 %18, label %19, label %20

19:                                               ; preds = %14
  store i32 5, ptr %5, align 4
  br label %42

20:                                               ; preds = %14
  %21 = load ptr, ptr %10, align 8
  %22 = load ptr, ptr %8, align 8
  %23 = getelementptr inbounds i8, ptr %22, i64 0
  %24 = load i8, ptr %23, align 1
  %25 = call zeroext i1 @lzma_lzma_lclppb_decode(ptr noundef %21, i8 noundef zeroext %24)
  br i1 %25, label %26, label %27

26:                                               ; preds = %20
  br label %39

27:                                               ; preds = %20
  %28 = load ptr, ptr %8, align 8
  %29 = getelementptr inbounds i8, ptr %28, i64 1
  %30 = call i32 @read32le(ptr noundef %29)
  %31 = load ptr, ptr %10, align 8
  %32 = getelementptr inbounds %struct.lzma_options_lzma, ptr %31, i32 0, i32 0
  store i32 %30, ptr %32, align 8
  %33 = load ptr, ptr %10, align 8
  %34 = getelementptr inbounds %struct.lzma_options_lzma, ptr %33, i32 0, i32 1
  store ptr null, ptr %34, align 8
  %35 = load ptr, ptr %10, align 8
  %36 = getelementptr inbounds %struct.lzma_options_lzma, ptr %35, i32 0, i32 2
  store i32 0, ptr %36, align 8
  %37 = load ptr, ptr %10, align 8
  %38 = load ptr, ptr %6, align 8
  store ptr %37, ptr %38, align 8
  store i32 0, ptr %5, align 4
  br label %42

39:                                               ; preds = %26
  %40 = load ptr, ptr %10, align 8
  %41 = load ptr, ptr %7, align 8
  call void @lzma_free(ptr noundef %40, ptr noundef %41)
  store i32 8, ptr %5, align 4
  br label %42

42:                                               ; preds = %39, %27, %19, %13
  %43 = load i32, ptr %5, align 4
  ret i32 %43
}