; Function Attrs: nounwind uwtable
define dso_local range(i32 0, 9) i32 @lzma_lzma_props_decode(ptr noundef writeonly captures(none) %0, ptr noundef %1, ptr noundef readonly captures(none) %2, i64 noundef %3) local_unnamed_addr #0 {
  %.not = icmp eq i64 %3, 5
  br i1 %.not, label %5, label %27

5:                                                ; preds = %4
  %6 = tail call noalias ptr @lzma_alloc(i64 noundef 112, ptr noundef %1) #9
  %7 = icmp eq ptr %6, null
  br i1 %7, label %27, label %8

8:                                                ; preds = %5
  %9 = load i8, ptr %2, align 1
  %10 = icmp ugt i8 %9, -32
  br i1 %10, label %lzma_lzma_lclppb_decode.exit.thread, label %lzma_lzma_lclppb_decode.exit

lzma_lzma_lclppb_decode.exit:                     ; preds = %8
  %11 = udiv i8 %9, 45
  %12 = zext nneg i8 %11 to i32
  %13 = getelementptr inbounds nuw i8, ptr %6, i64 28
  store i32 %12, ptr %13, align 4
  %14 = mul i8 %11, -45
  %15 = add i8 %14, %9
  %16 = zext i8 %15 to i32
  %17 = udiv i8 %15, 9
  %.zext.i = zext nneg i8 %17 to i32
  %18 = getelementptr inbounds nuw i8, ptr %6, i64 24
  store i32 %.zext.i, ptr %18, align 8
  %.neg.i = mul nsw i32 %.zext.i, -9
  %19 = add nsw i32 %.neg.i, %16
  %20 = getelementptr inbounds nuw i8, ptr %6, i64 20
  store i32 %19, ptr %20, align 4
  %21 = add nsw i32 %19, %.zext.i
  %22 = icmp ugt i32 %21, 4
  br i1 %22, label %lzma_lzma_lclppb_decode.exit.thread, label %23

23:                                               ; preds = %lzma_lzma_lclppb_decode.exit
  %24 = getelementptr inbounds nuw i8, ptr %2, i64 1
  %.val = load i32, ptr %24, align 1
  store i32 %.val, ptr %6, align 8
  %25 = getelementptr inbounds nuw i8, ptr %6, i64 8
  store ptr null, ptr %25, align 8
  %26 = getelementptr inbounds nuw i8, ptr %6, i64 16
  store i32 0, ptr %26, align 8
  store ptr %6, ptr %0, align 8
  br label %27

lzma_lzma_lclppb_decode.exit.thread:              ; preds = %8, %lzma_lzma_lclppb_decode.exit
  tail call void @lzma_free(ptr noundef nonnull %6, ptr noundef %1) #9
  br label %27

27:                                               ; preds = %5, %4, %lzma_lzma_lclppb_decode.exit.thread, %23
  %.0 = phi i32 [ 8, %lzma_lzma_lclppb_decode.exit.thread ], [ 0, %23 ], [ 8, %4 ], [ 5, %5 ]
  ret i32 %.0
}